target datalayout = "e-m:e-p270:32:32-p271:32:32-p272:64:64-i64:64-i128:128-f80:128-n8:16:32:64-S128"
target triple = "x86_64-pc-linux-gnu"

@decompress_impl = internal global ptr @dispatch_decomp, align 8
@libdeflate_x86_cpu_features = external global i32, align 4

; Function Attrs: inlinehint nounwind uwtable
define internal i32 @get_x86_cpu_features() #3 {
  %1 = load volatile i32, ptr @libdeflate_x86_cpu_features, align 4, !tbaa !26
  %2 = icmp eq i32 %1, 0
  br i1 %2, label %3, label %4

3:                                                ; preds = %0
  call void @libdeflate_init_x86_cpu_features()
  br label %4

4:                                                ; preds = %3, %0
  %5 = load volatile i32, ptr @libdeflate_x86_cpu_features, align 4, !tbaa !26
  ret i32 %5
}

; Function Attrs: inlinehint nounwind uwtable
define internal ptr @arch_select_decompress_func() #3 {
  %1 = alloca ptr, align 8
  %2 = call i32 @get_x86_cpu_features()
  %3 = and i32 %2, 16
  %4 = icmp ne i32 %3, 0
  br i1 %4, label %5, label %6

5:                                                ; preds = %0
  store ptr @deflate_decompress_bmi2, ptr %1, align 8
  br label %7

6:                                                ; preds = %0
  store ptr null, ptr %1, align 8
  br label %7

7:                                                ; preds = %6, %5
  %8 = load ptr, ptr %1, align 8
  ret ptr %8
}

; Function Attrs: nounwind uwtable
define internal i32 @dispatch_decomp(ptr noundef %0, ptr noundef %1, i64 noundef %2, ptr noundef %3, i64 noundef %4, ptr noundef %5, ptr noundef %6) #0 {
  %8 = alloca ptr, align 8
  %9 = alloca ptr, align 8
  %10 = alloca i64, align 8
  %11 = alloca ptr, align 8
  %12 = alloca i64, align 8
  %13 = alloca ptr, align 8
  %14 = alloca ptr, align 8
  %15 = alloca ptr, align 8
  store ptr %0, ptr %8, align 8, !tbaa !4
  store ptr %1, ptr %9, align 8, !tbaa !9
  store i64 %2, ptr %10, align 8, !tbaa !10
  store ptr %3, ptr %11, align 8, !tbaa !9
  store i64 %4, ptr %12, align 8, !tbaa !10
  store ptr %5, ptr %13, align 8, !tbaa !12
  store ptr %6, ptr %14, align 8, !tbaa !12
  call void @llvm.lifetime.start.p0(i64 8, ptr %15) #10
  %16 = call ptr @arch_select_decompress_func()
  store ptr %16, ptr %15, align 8, !tbaa !9
  %17 = load ptr, ptr %15, align 8, !tbaa !9
  %18 = icmp eq ptr %17, null
  br i1 %18, label %19, label %20

19:                                               ; preds = %7
  store ptr @deflate_decompress_default, ptr %15, align 8, !tbaa !9
  br label %20

20:                                               ; preds = %19, %7
  %21 = load ptr, ptr %15, align 8, !tbaa !9
  store volatile ptr %21, ptr @decompress_impl, align 8, !tbaa !9
  %22 = load ptr, ptr %15, align 8, !tbaa !9
  %23 = load ptr, ptr %8, align 8, !tbaa !4
  %24 = load ptr, ptr %9, align 8, !tbaa !9
  %25 = load i64, ptr %10, align 8, !tbaa !10
  %26 = load ptr, ptr %11, align 8, !tbaa !9
  %27 = load i64, ptr %12, align 8, !tbaa !10
  %28 = load ptr, ptr %13, align 8, !tbaa !12
  %29 = load ptr, ptr %14, align 8, !tbaa !12
  %30 = call i32 %22(ptr noundef %23, ptr noundef %24, i64 noundef %25, ptr noundef %26, i64 noundef %27, ptr noundef %28, ptr noundef %29)
  call void @llvm.lifetime.end.p0(i64 8, ptr %15) #10
  ret i32 %30
}