; Function Attrs: nounwind uwtable
define internal i32 @dispatch_decomp(ptr noundef %0, ptr noundef %1, i64 noundef %2, ptr noundef %3, i64 noundef %4, ptr noundef %5, ptr noundef %6) #0 {
  %8 = load volatile i32, ptr @libdeflate_x86_cpu_features, align 4, !tbaa !17
  %9 = icmp eq i32 %8, 0
  br i1 %9, label %10, label %arch_select_decompress_func.exit

10:                                               ; preds = %7
  tail call void @libdeflate_init_x86_cpu_features() #10
  br label %arch_select_decompress_func.exit

arch_select_decompress_func.exit:                 ; preds = %7, %10
  %11 = load volatile i32, ptr @libdeflate_x86_cpu_features, align 4, !tbaa !17
  %12 = and i32 %11, 16
  %.not.i = icmp eq i32 %12, 0
  %spec.store.select = select i1 %.not.i, ptr @deflate_decompress_default, ptr @deflate_decompress_bmi2
  store volatile ptr %spec.store.select, ptr @decompress_impl, align 8, !tbaa !4
  %13 = tail call i32 %spec.store.select(ptr noundef %0, ptr noundef %1, i64 noundef %2, ptr noundef %3, i64 noundef %4, ptr noundef %5, ptr noundef %6) #10, !callees !18
  ret i32 %13
}